target datalayout = "e-m:e-p270:32:32-p271:32:32-p272:64:64-i64:64-i128:128-f80:128-n8:16:32:64-S128"
target triple = "x86_64-pc-linux-gnu"

@_ZN7TypeInt3INTE = external global ptr, align 8
@_ZN7TypePtr7NOTNULLE = external global ptr, align 8

; Function Attrs: mustprogress nounwind uwtable
define hidden noundef ptr @_ZN11OptoRuntime16squareToLen_TypeEv() #1 align 2 {
  %1 = alloca i32, align 4
  %2 = alloca i32, align 4
  %3 = alloca ptr, align 8
  %4 = alloca i32, align 4
  %5 = alloca ptr, align 8
  %6 = alloca ptr, align 8
  store i32 4, ptr %1, align 4
  %7 = load i32, ptr %1, align 4
  store i32 %7, ptr %2, align 4
  %8 = load i32, ptr %2, align 4
  %9 = call noundef ptr @_ZN9TypeTuple6fieldsEj(i32 noundef %8)
  store ptr %9, ptr %3, align 8
  store i32 5, ptr %4, align 4
  %10 = load ptr, ptr @_ZN7TypePtr7NOTNULLE, align 8
  %11 = load ptr, ptr %3, align 8
  %12 = load i32, ptr %4, align 4
  %13 = add nsw i32 %12, 1
  store i32 %13, ptr %4, align 4
  %14 = sext i32 %12 to i64
  %15 = getelementptr inbounds ptr, ptr %11, i64 %14
  store ptr %10, ptr %15, align 8
  %16 = load ptr, ptr @_ZN7TypeInt3INTE, align 8
  %17 = load ptr, ptr %3, align 8
  %18 = load i32, ptr %4, align 4
  %19 = add nsw i32 %18, 1
  store i32 %19, ptr %4, align 4
  %20 = sext i32 %18 to i64
  %21 = getelementptr inbounds ptr, ptr %17, i64 %20
  store ptr %16, ptr %21, align 8
  %22 = load ptr, ptr @_ZN7TypePtr7NOTNULLE, align 8
  %23 = load ptr, ptr %3, align 8
  %24 = load i32, ptr %4, align 4
  %25 = add nsw i32 %24, 1
  store i32 %25, ptr %4, align 4
  %26 = sext i32 %24 to i64
  %27 = getelementptr inbounds ptr, ptr %23, i64 %26
  store ptr %22, ptr %27, align 8
  %28 = load ptr, ptr @_ZN7TypeInt3INTE, align 8
  %29 = load ptr, ptr %3, align 8
  %30 = load i32, ptr %4, align 4
  %31 = add nsw i32 %30, 1
  store i32 %31, ptr %4, align 4
  %32 = sext i32 %30 to i64
  %33 = getelementptr inbounds ptr, ptr %29, i64 %32
  store ptr %28, ptr %33, align 8
  %34 = load i32, ptr %2, align 4
  %35 = add nsw i32 5, %34
  %36 = load ptr, ptr %3, align 8
  %37 = call noundef ptr @_ZN9TypeTuple4makeEjPPK4Type(i32 noundef %35, ptr noundef %36)
  store ptr %37, ptr %5, align 8
  %38 = call noundef ptr @_ZN9TypeTuple6fieldsEj(i32 noundef 1)
  store ptr %38, ptr %3, align 8
  %39 = load ptr, ptr %3, align 8
  %40 = getelementptr inbounds ptr, ptr %39, i64 5
  store ptr null, ptr %40, align 8
  %41 = load ptr, ptr %3, align 8
  %42 = call noundef ptr @_ZN9TypeTuple4makeEjPPK4Type(i32 noundef 5, ptr noundef %41)
  store ptr %42, ptr %6, align 8
  %43 = load ptr, ptr %5, align 8
  %44 = load ptr, ptr %6, align 8
  %45 = call noundef ptr @_ZN8TypeFunc4makeEPK9TypeTupleS2_(ptr noundef %43, ptr noundef %44)
  ret ptr %45
}